; Function Attrs: null_pointer_is_valid sspstrong uwtable
define internal void @dtap_gmm_rau_com(ptr noundef %0, ptr noundef %1, ptr noundef initializes((348, 352)) %2, i32 noundef %3, i32 noundef %4) #1 {
  %6 = getelementptr inbounds nuw i8, ptr %2, i64 348
  store i32 1, ptr %6, align 4
  %7 = icmp slt i32 %4, 1
  br i1 %7, label %27, label %8

8:                                                ; preds = %5
  %9 = tail call zeroext i16 @elem_tlv(ptr noundef %0, ptr noundef %1, ptr noundef %2, i8 noundef zeroext 38, i32 noundef 5, i32 noundef 14, i32 noundef %3, i32 noundef %4, ptr noundef null)
  %10 = zext i16 %9 to i32
  %11 = sub nsw i32 %4, %10
  %12 = icmp slt i32 %11, 1
  br i1 %12, label %27, label %13

13:                                               ; preds = %8
  %14 = add i32 %3, %10
  %15 = tail call zeroext i16 @elem_tlv(ptr noundef %0, ptr noundef %1, ptr noundef %2, i8 noundef zeroext 39, i32 noundef 5, i32 noundef 29, i32 noundef %14, i32 noundef %11, ptr noundef nonnull @.str.1115)
  %16 = zext i16 %15 to i32
  %17 = sub nsw i32 %11, %16
  %18 = icmp slt i32 %17, 1
  br i1 %18, label %27, label %19

19:                                               ; preds = %13
  %20 = add i32 %14, %16
  %21 = tail call zeroext i16 @elem_tlv(ptr noundef %0, ptr noundef %1, ptr noundef %2, i8 noundef zeroext 43, i32 noundef 5, i32 noundef 32, i32 noundef %20, i32 noundef %17, ptr noundef nonnull @.str.1116)
  %22 = zext i16 %21 to i32
  %.not49 = icmp eq i32 %17, %22
  br i1 %.not49, label %27, label %23

23:                                               ; preds = %19
  %24 = sub nsw i32 %17, %22
  %25 = add i32 %20, %22
  %26 = tail call ptr @proto_tree_add_expert(ptr noundef %1, ptr noundef %2, ptr noundef nonnull @ei_gsm_a_gm_extraneous_data, ptr noundef %0, i32 noundef %25, i32 noundef %24)
  br label %27

27:                                               ; preds = %19, %23, %13, %8, %5
  ret void
}